target datalayout = "e-m:e-p270:32:32-p271:32:32-p272:64:64-i64:64-i128:128-f80:128-n8:16:32:64-S128"
target triple = "x86_64-pc-linux-gnu"

%"class.cv::Mat" = type { i32, i32, i32, i32, ptr, ptr, ptr, ptr, ptr, ptr, %"struct.cv::MatSize", %"struct.cv::MatStep" }
%"struct.cv::MatSize" = type { ptr }
%"struct.cv::MatStep" = type { ptr, [2 x i64] }
%"class.cv::ximgproc::segmentation::SelectiveSearchSegmentationStrategy" = type { %"class.cv::Algorithm" }
%"class.cv::Algorithm" = type { ptr }
%"class.std::__cxx11::basic_string" = type { %"struct.std::__cxx11::basic_string<char>::_Alloc_hider", i64, %union.anon }
%"struct.std::__cxx11::basic_string<char>::_Alloc_hider" = type { ptr }
%union.anon = type { i64, [8 x i8] }
%"class.cv::Rect_" = type { i32, i32, i32, i32 }
%"class.cv::ximgproc::segmentation::SelectiveSearchSegmentationStrategyFillImpl" = type { %"class.cv::ximgproc::segmentation::SelectiveSearchSegmentationStrategyFill", %"class.std::__cxx11::basic_string", %"class.cv::Mat", i32, %"class.std::vector.37" }
%"class.cv::ximgproc::segmentation::SelectiveSearchSegmentationStrategyFill" = type { %"class.cv::ximgproc::segmentation::SelectiveSearchSegmentationStrategy" }
%"class.std::vector.37" = type { %"struct.std::_Vector_base.38" }
%"struct.std::_Vector_base.38" = type { %"struct.std::_Vector_base<cv::Rect_<int>, std::allocator<cv::Rect_<int>>>::_Vector_impl" }
%"struct.std::_Vector_base<cv::Rect_<int>, std::allocator<cv::Rect_<int>>>::_Vector_impl" = type { %"struct.std::_Vector_base<cv::Rect_<int>, std::allocator<cv::Rect_<int>>>::_Vector_impl_data" }
%"struct.std::_Vector_base<cv::Rect_<int>, std::allocator<cv::Rect_<int>>>::_Vector_impl_data" = type { ptr, ptr, ptr }

; Function Attrs: inlinehint mustprogress nounwind uwtable
define linkonce_odr noundef nonnull align 4 dereferenceable(4) ptr @_ZSt3maxIiERKT_S2_S2_(ptr noundef nonnull align 4 dereferenceable(4) %0, ptr noundef nonnull align 4 dereferenceable(4) %1) #8 comdat {
  %3 = alloca ptr, align 8
  %4 = alloca ptr, align 8
  %5 = alloca ptr, align 8
  store ptr %0, ptr %4, align 8, !tbaa !136
  store ptr %1, ptr %5, align 8, !tbaa !136
  %6 = load ptr, ptr %4, align 8, !tbaa !136
  %7 = load i32, ptr %6, align 4, !tbaa !10
  %8 = load ptr, ptr %5, align 8, !tbaa !136
  %9 = load i32, ptr %8, align 4, !tbaa !10
  %10 = icmp slt i32 %7, %9
  br i1 %10, label %11, label %13

11:                                               ; preds = %2
  %12 = load ptr, ptr %5, align 8, !tbaa !136
  store ptr %12, ptr %3, align 8
  br label %15

13:                                               ; preds = %2
  %14 = load ptr, ptr %4, align 8, !tbaa !136
  store ptr %14, ptr %3, align 8
  br label %15

15:                                               ; preds = %13, %11
  %16 = load ptr, ptr %3, align 8
  ret ptr %16
}

; Function Attrs: inlinehint mustprogress nounwind uwtable
define linkonce_odr noundef nonnull align 4 dereferenceable(4) ptr @_ZSt3minIiERKT_S2_S2_(ptr noundef nonnull align 4 dereferenceable(4) %0, ptr noundef nonnull align 4 dereferenceable(4) %1) #8 comdat {
  %3 = alloca ptr, align 8
  %4 = alloca ptr, align 8
  %5 = alloca ptr, align 8
  store ptr %0, ptr %4, align 8, !tbaa !136
  store ptr %1, ptr %5, align 8, !tbaa !136
  %6 = load ptr, ptr %5, align 8, !tbaa !136
  %7 = load i32, ptr %6, align 4, !tbaa !10
  %8 = load ptr, ptr %4, align 8, !tbaa !136
  %9 = load i32, ptr %8, align 4, !tbaa !10
  %10 = icmp slt i32 %7, %9
  br i1 %10, label %11, label %13

11:                                               ; preds = %2
  %12 = load ptr, ptr %5, align 8, !tbaa !136
  store ptr %12, ptr %3, align 8
  br label %15

13:                                               ; preds = %2
  %14 = load ptr, ptr %4, align 8, !tbaa !136
  store ptr %14, ptr %3, align 8
  br label %15

15:                                               ; preds = %13, %11
  %16 = load ptr, ptr %3, align 8
  ret ptr %16
}

; Function Attrs: inlinehint mustprogress nounwind uwtable
define linkonce_odr hidden noundef zeroext i1 @_ZNK2cv5Rect_IiE5emptyEv(ptr noundef nonnull align 4 dereferenceable(16) %0) #8 comdat align 2 {
  %2 = alloca ptr, align 8
  store ptr %0, ptr %2, align 8, !tbaa !156
  %3 = load ptr, ptr %2, align 8
  %4 = getelementptr inbounds nuw %"class.cv::Rect_", ptr %3, i32 0, i32 2
  %5 = load i32, ptr %4, align 4, !tbaa !157
  %6 = icmp sle i32 %5, 0
  br i1 %6, label %11, label %7

7:                                                ; preds = %1
  %8 = getelementptr inbounds nuw %"class.cv::Rect_", ptr %3, i32 0, i32 3
  %9 = load i32, ptr %8, align 4, !tbaa !159
  %10 = icmp sle i32 %9, 0
  br label %11

11:                                               ; preds = %7, %1
  %12 = phi i1 [ true, %1 ], [ %10, %7 ]
  ret i1 %12
}

; Function Attrs: inlinehint mustprogress uwtable
define internal noundef nonnull align 4 dereferenceable(16) ptr @_ZN2cvoRIiEERNS_5Rect_IT_EES4_RKS3_(ptr noundef nonnull align 4 dereferenceable(16) %0, ptr noundef nonnull align 4 dereferenceable(16) %1) #6 {
  %3 = alloca ptr, align 8
  %4 = alloca ptr, align 8
  %5 = alloca i32, align 4
  %6 = alloca i32, align 4
  %7 = alloca i32, align 4
  %8 = alloca i32, align 4
  %9 = alloca i32, align 4
  %10 = alloca i32, align 4
  store ptr %0, ptr %3, align 8, !tbaa !156
  store ptr %1, ptr %4, align 8, !tbaa !156
  %11 = load ptr, ptr %3, align 8, !tbaa !156
  %12 = call noundef zeroext i1 @_ZNK2cv5Rect_IiE5emptyEv(ptr noundef nonnull align 4 dereferenceable(16) %11)
  br i1 %12, label %13, label %16

13:                                               ; preds = %2
  %14 = load ptr, ptr %4, align 8, !tbaa !156
  %15 = load ptr, ptr %3, align 8, !tbaa !156
  call void @llvm.memcpy.p0.p0.i64(ptr align 4 %15, ptr align 4 %14, i64 16, i1 false), !tbaa.struct !139
  br label %79

16:                                               ; preds = %2
  %17 = load ptr, ptr %4, align 8, !tbaa !156
  %18 = call noundef zeroext i1 @_ZNK2cv5Rect_IiE5emptyEv(ptr noundef nonnull align 4 dereferenceable(16) %17)
  br i1 %18, label %78, label %19

19:                                               ; preds = %16
  call void @llvm.lifetime.start.p0(i64 4, ptr %5) #3
  %20 = load ptr, ptr %3, align 8, !tbaa !156
  %21 = getelementptr inbounds nuw %"class.cv::Rect_", ptr %20, i32 0, i32 0
  %22 = load ptr, ptr %4, align 8, !tbaa !156
  %23 = getelementptr inbounds nuw %"class.cv::Rect_", ptr %22, i32 0, i32 0
  %24 = call noundef nonnull align 4 dereferenceable(4) ptr @_ZSt3minIiERKT_S2_S2_(ptr noundef nonnull align 4 dereferenceable(4) %21, ptr noundef nonnull align 4 dereferenceable(4) %23)
  %25 = load i32, ptr %24, align 4, !tbaa !10
  store i32 %25, ptr %5, align 4, !tbaa !10
  call void @llvm.lifetime.start.p0(i64 4, ptr %6) #3
  %26 = load ptr, ptr %3, align 8, !tbaa !156
  %27 = getelementptr inbounds nuw %"class.cv::Rect_", ptr %26, i32 0, i32 1
  %28 = load ptr, ptr %4, align 8, !tbaa !156
  %29 = getelementptr inbounds nuw %"class.cv::Rect_", ptr %28, i32 0, i32 1
  %30 = call noundef nonnull align 4 dereferenceable(4) ptr @_ZSt3minIiERKT_S2_S2_(ptr noundef nonnull align 4 dereferenceable(4) %27, ptr noundef nonnull align 4 dereferenceable(4) %29)
  %31 = load i32, ptr %30, align 4, !tbaa !10
  store i32 %31, ptr %6, align 4, !tbaa !10
  call void @llvm.lifetime.start.p0(i64 4, ptr %7) #3
  %32 = load ptr, ptr %3, align 8, !tbaa !156
  %33 = getelementptr inbounds nuw %"class.cv::Rect_", ptr %32, i32 0, i32 0
  %34 = load i32, ptr %33, align 4, !tbaa !202
  %35 = load ptr, ptr %3, align 8, !tbaa !156
  %36 = getelementptr inbounds nuw %"class.cv::Rect_", ptr %35, i32 0, i32 2
  %37 = load i32, ptr %36, align 4, !tbaa !157
  %38 = add nsw i32 %34, %37
  store i32 %38, ptr %7, align 4, !tbaa !10
  call void @llvm.lifetime.start.p0(i64 4, ptr %8) #3
  %39 = load ptr, ptr %4, align 8, !tbaa !156
  %40 = getelementptr inbounds nuw %"class.cv::Rect_", ptr %39, i32 0, i32 0
  %41 = load i32, ptr %40, align 4, !tbaa !202
  %42 = load ptr, ptr %4, align 8, !tbaa !156
  %43 = getelementptr inbounds nuw %"class.cv::Rect_", ptr %42, i32 0, i32 2
  %44 = load i32, ptr %43, align 4, !tbaa !157
  %45 = add nsw i32 %41, %44
  store i32 %45, ptr %8, align 4, !tbaa !10
  %46 = call noundef nonnull align 4 dereferenceable(4) ptr @_ZSt3maxIiERKT_S2_S2_(ptr noundef nonnull align 4 dereferenceable(4) %7, ptr noundef nonnull align 4 dereferenceable(4) %8)
  %47 = load i32, ptr %46, align 4, !tbaa !10
  %48 = load i32, ptr %5, align 4, !tbaa !10
  %49 = sub nsw i32 %47, %48
  %50 = load ptr, ptr %3, align 8, !tbaa !156
  %51 = getelementptr inbounds nuw %"class.cv::Rect_", ptr %50, i32 0, i32 2
  store i32 %49, ptr %51, align 4, !tbaa !157
  call void @llvm.lifetime.end.p0(i64 4, ptr %8) #3
  call void @llvm.lifetime.end.p0(i64 4, ptr %7) #3
  call void @llvm.lifetime.start.p0(i64 4, ptr %9) #3
  %52 = load ptr, ptr %3, align 8, !tbaa !156
  %53 = getelementptr inbounds nuw %"class.cv::Rect_", ptr %52, i32 0, i32 1
  %54 = load i32, ptr %53, align 4, !tbaa !203
  %55 = load ptr, ptr %3, align 8, !tbaa !156
  %56 = getelementptr inbounds nuw %"class.cv::Rect_", ptr %55, i32 0, i32 3
  %57 = load i32, ptr %56, align 4, !tbaa !159
  %58 = add nsw i32 %54, %57
  store i32 %58, ptr %9, align 4, !tbaa !10
  call void @llvm.lifetime.start.p0(i64 4, ptr %10) #3
  %59 = load ptr, ptr %4, align 8, !tbaa !156
  %60 = getelementptr inbounds nuw %"class.cv::Rect_", ptr %59, i32 0, i32 1
  %61 = load i32, ptr %60, align 4, !tbaa !203
  %62 = load ptr, ptr %4, align 8, !tbaa !156
  %63 = getelementptr inbounds nuw %"class.cv::Rect_", ptr %62, i32 0, i32 3
  %64 = load i32, ptr %63, align 4, !tbaa !159
  %65 = add nsw i32 %61, %64
  store i32 %65, ptr %10, align 4, !tbaa !10
  %66 = call noundef nonnull align 4 dereferenceable(4) ptr @_ZSt3maxIiERKT_S2_S2_(ptr noundef nonnull align 4 dereferenceable(4) %9, ptr noundef nonnull align 4 dereferenceable(4) %10)
  %67 = load i32, ptr %66, align 4, !tbaa !10
  %68 = load i32, ptr %6, align 4, !tbaa !10
  %69 = sub nsw i32 %67, %68
  %70 = load ptr, ptr %3, align 8, !tbaa !156
  %71 = getelementptr inbounds nuw %"class.cv::Rect_", ptr %70, i32 0, i32 3
  store i32 %69, ptr %71, align 4, !tbaa !159
  call void @llvm.lifetime.end.p0(i64 4, ptr %10) #3
  call void @llvm.lifetime.end.p0(i64 4, ptr %9) #3
  %72 = load i32, ptr %5, align 4, !tbaa !10
  %73 = load ptr, ptr %3, align 8, !tbaa !156
  %74 = getelementptr inbounds nuw %"class.cv::Rect_", ptr %73, i32 0, i32 0
  store i32 %72, ptr %74, align 4, !tbaa !202
  %75 = load i32, ptr %6, align 4, !tbaa !10
  %76 = load ptr, ptr %3, align 8, !tbaa !156
  %77 = getelementptr inbounds nuw %"class.cv::Rect_", ptr %76, i32 0, i32 1
  store i32 %75, ptr %77, align 4, !tbaa !203
  call void @llvm.lifetime.end.p0(i64 4, ptr %6) #3
  call void @llvm.lifetime.end.p0(i64 4, ptr %5) #3
  br label %78

78:                                               ; preds = %19, %16
  br label %79

79:                                               ; preds = %78, %13
  %80 = load ptr, ptr %3, align 8, !tbaa !156
  ret ptr %80
}

; Function Attrs: inlinehint mustprogress uwtable
define internal { i64, i64 } @_ZN2cvorIiEENS_5Rect_IT_EERKS3_S5_(ptr noundef nonnull align 4 dereferenceable(16) %0, ptr noundef nonnull align 4 dereferenceable(16) %1) #6 {
  %3 = alloca %"class.cv::Rect_", align 4
  %4 = alloca ptr, align 8
  %5 = alloca ptr, align 8
  %6 = alloca %"class.cv::Rect_", align 4
  store ptr %0, ptr %4, align 8, !tbaa !156
  store ptr %1, ptr %5, align 8, !tbaa !156
  call void @llvm.lifetime.start.p0(i64 16, ptr %6) #3
  %7 = load ptr, ptr %4, align 8, !tbaa !156
  call void @llvm.memcpy.p0.p0.i64(ptr align 4 %6, ptr align 4 %7, i64 16, i1 false), !tbaa.struct !139
  %8 = load ptr, ptr %5, align 8, !tbaa !156
  %9 = call noundef nonnull align 4 dereferenceable(16) ptr @_ZN2cvoRIiEERNS_5Rect_IT_EES4_RKS3_(ptr noundef nonnull align 4 dereferenceable(16) %6, ptr noundef nonnull align 4 dereferenceable(16) %8)
  call void @llvm.memcpy.p0.p0.i64(ptr align 4 %3, ptr align 4 %9, i64 16, i1 false), !tbaa.struct !139
  call void @llvm.lifetime.end.p0(i64 16, ptr %6) #3
  %10 = load { i64, i64 }, ptr %3, align 4
  ret { i64, i64 } %10
}

; Function Attrs: mustprogress nounwind uwtable
define linkonce_odr hidden noundef nonnull align 4 dereferenceable(16) ptr @_ZNSt6vectorIN2cv5Rect_IiEESaIS2_EEixEm(ptr noundef nonnull align 8 dereferenceable(24) %0, i64 noundef %1) #7 comdat align 2 {
  %3 = alloca ptr, align 8
  %4 = alloca i64, align 8
  store ptr %0, ptr %3, align 8, !tbaa !152
  store i64 %1, ptr %4, align 8, !tbaa !64
  %5 = load ptr, ptr %3, align 8
  %6 = getelementptr inbounds nuw %"struct.std::_Vector_base.38", ptr %5, i32 0, i32 0
  %7 = getelementptr inbounds nuw %"struct.std::_Vector_base<cv::Rect_<int>, std::allocator<cv::Rect_<int>>>::_Vector_impl_data", ptr %6, i32 0, i32 0
  %8 = load ptr, ptr %7, align 8, !tbaa !154
  %9 = load i64, ptr %4, align 8, !tbaa !64
  %10 = getelementptr inbounds nuw %"class.cv::Rect_", ptr %8, i64 %9
  ret ptr %10
}

; Function Attrs: mustprogress uwtable
define hidden void @_ZN2cv8ximgproc12segmentation43SelectiveSearchSegmentationStrategyFillImpl5mergeEii(ptr noundef nonnull align 8 dereferenceable(168) %0, i32 noundef %1, i32 noundef %2) unnamed_addr #4 align 2 {
  %4 = alloca ptr, align 8
  %5 = alloca i32, align 4
  %6 = alloca i32, align 4
  %7 = alloca %"class.cv::Rect_", align 4
  store ptr %0, ptr %4, align 8, !tbaa !126
  store i32 %1, ptr %5, align 4, !tbaa !10
  store i32 %2, ptr %6, align 4, !tbaa !10
  %8 = load ptr, ptr %4, align 8
  call void @llvm.lifetime.start.p0(i64 16, ptr %7) #3
  %9 = getelementptr inbounds nuw %"class.cv::ximgproc::segmentation::SelectiveSearchSegmentationStrategyFillImpl", ptr %8, i32 0, i32 4
  %10 = load i32, ptr %5, align 4, !tbaa !10
  %11 = sext i32 %10 to i64
  %12 = call noundef nonnull align 4 dereferenceable(16) ptr @_ZNSt6vectorIN2cv5Rect_IiEESaIS2_EEixEm(ptr noundef nonnull align 8 dereferenceable(24) %9, i64 noundef %11) #3
  %13 = getelementptr inbounds nuw %"class.cv::ximgproc::segmentation::SelectiveSearchSegmentationStrategyFillImpl", ptr %8, i32 0, i32 4
  %14 = load i32, ptr %6, align 4, !tbaa !10
  %15 = sext i32 %14 to i64
  %16 = call noundef nonnull align 4 dereferenceable(16) ptr @_ZNSt6vectorIN2cv5Rect_IiEESaIS2_EEixEm(ptr noundef nonnull align 8 dereferenceable(24) %13, i64 noundef %15) #3
  %17 = call { i64, i64 } @_ZN2cvorIiEENS_5Rect_IT_EERKS3_S5_(ptr noundef nonnull align 4 dereferenceable(16) %12, ptr noundef nonnull align 4 dereferenceable(16) %16)
  %18 = getelementptr inbounds nuw { i64, i64 }, ptr %7, i32 0, i32 0
  %19 = extractvalue { i64, i64 } %17, 0
  store i64 %19, ptr %18, align 4
  %20 = getelementptr inbounds nuw { i64, i64 }, ptr %7, i32 0, i32 1
  %21 = extractvalue { i64, i64 } %17, 1
  store i64 %21, ptr %20, align 4
  %22 = getelementptr inbounds nuw %"class.cv::ximgproc::segmentation::SelectiveSearchSegmentationStrategyFillImpl", ptr %8, i32 0, i32 4
  %23 = load i32, ptr %5, align 4, !tbaa !10
  %24 = sext i32 %23 to i64
  %25 = call noundef nonnull align 4 dereferenceable(16) ptr @_ZNSt6vectorIN2cv5Rect_IiEESaIS2_EEixEm(ptr noundef nonnull align 8 dereferenceable(24) %22, i64 noundef %24) #3
  call void @llvm.memcpy.p0.p0.i64(ptr align 4 %25, ptr align 4 %7, i64 16, i1 false), !tbaa.struct !139
  call void @llvm.lifetime.end.p0(i64 16, ptr %7) #3
  %26 = getelementptr inbounds nuw %"class.cv::ximgproc::segmentation::SelectiveSearchSegmentationStrategyFillImpl", ptr %8, i32 0, i32 4
  %27 = load i32, ptr %5, align 4, !tbaa !10
  %28 = sext i32 %27 to i64
  %29 = call noundef nonnull align 4 dereferenceable(16) ptr @_ZNSt6vectorIN2cv5Rect_IiEESaIS2_EEixEm(ptr noundef nonnull align 8 dereferenceable(24) %26, i64 noundef %28) #3
  %30 = getelementptr inbounds nuw %"class.cv::ximgproc::segmentation::SelectiveSearchSegmentationStrategyFillImpl", ptr %8, i32 0, i32 4
  %31 = load i32, ptr %6, align 4, !tbaa !10
  %32 = sext i32 %31 to i64
  %33 = call noundef nonnull align 4 dereferenceable(16) ptr @_ZNSt6vectorIN2cv5Rect_IiEESaIS2_EEixEm(ptr noundef nonnull align 8 dereferenceable(24) %30, i64 noundef %32) #3
  call void @llvm.memcpy.p0.p0.i64(ptr align 4 %33, ptr align 4 %29, i64 16, i1 false), !tbaa.struct !139
  ret void
}