; Function Attrs: mustprogress nofree norecurse nosync nounwind willreturn memory(readwrite, inaccessiblemem: none) uwtable
define hidden void @_ZN2cv8ximgproc12segmentation43SelectiveSearchSegmentationStrategyFillImpl5mergeEii(ptr noundef nonnull readonly align 8 captures(none) dereferenceable(168) %0, i32 noundef %1, i32 noundef %2) unnamed_addr #12 align 2 {
  %4 = getelementptr inbounds nuw i8, ptr %0, i64 144
  %5 = sext i32 %1 to i64
  %6 = load ptr, ptr %4, align 8, !tbaa !199
  %7 = getelementptr inbounds nuw %"class.cv::Rect_", ptr %6, i64 %5
  %8 = sext i32 %2 to i64
  %9 = getelementptr inbounds nuw %"class.cv::Rect_", ptr %6, i64 %8
  %.sroa.0.0.copyload2.i = load i64, ptr %7, align 4
  %.sroa.0.sroa.0.0.extract.trunc.i = trunc i64 %.sroa.0.0.copyload2.i to i32
  %.sroa.0.sroa.7.0.extract.shift.i = lshr i64 %.sroa.0.0.copyload2.i, 32
  %.sroa.0.sroa.7.0.extract.trunc.i = trunc nuw i64 %.sroa.0.sroa.7.0.extract.shift.i to i32
  %.sroa.9.0..sroa_idx.i = getelementptr inbounds nuw i8, ptr %7, i64 8
  %.sroa.9.0.copyload.i = load i64, ptr %.sroa.9.0..sroa_idx.i, align 4
  %.sroa.9.8.extract.trunc.i = trunc i64 %.sroa.9.0.copyload.i to i32
  %10 = icmp slt i32 %.sroa.9.8.extract.trunc.i, 1
  %.sroa.9.12.extract.shift.i = lshr i64 %.sroa.9.0.copyload.i, 32
  %.sroa.9.12.extract.trunc.i = trunc nuw i64 %.sroa.9.12.extract.shift.i to i32
  %11 = icmp slt i32 %.sroa.9.12.extract.trunc.i, 1
  %12 = select i1 %10, i1 true, i1 %11
  br i1 %12, label %13, label %14

13:                                               ; preds = %3
  %.sroa.0.0.copyload3.i = load i64, ptr %9, align 4
  %.sroa.0.sroa.0.0.extract.trunc8.i = trunc i64 %.sroa.0.0.copyload3.i to i32
  %.sroa.0.sroa.7.0.extract.shift9.i = lshr i64 %.sroa.0.0.copyload3.i, 32
  %.sroa.0.sroa.7.0.extract.trunc10.i = trunc nuw i64 %.sroa.0.sroa.7.0.extract.shift9.i to i32
  %.sroa.9.0..sroa_idx5.i = getelementptr inbounds nuw i8, ptr %9, i64 8
  %.sroa.9.0.copyload6.i = load i64, ptr %.sroa.9.0..sroa_idx5.i, align 4
  br label %_ZN2cvorIiEENS_5Rect_IT_EERKS3_S5_.exit

14:                                               ; preds = %3
  %15 = getelementptr inbounds nuw i8, ptr %9, i64 8
  %16 = load i32, ptr %15, align 4, !tbaa !209
  %17 = icmp slt i32 %16, 1
  %18 = getelementptr inbounds nuw i8, ptr %9, i64 12
  %19 = load i32, ptr %18, align 4
  %20 = icmp slt i32 %19, 1
  %21 = select i1 %17, i1 true, i1 %20
  br i1 %21, label %_ZN2cvorIiEENS_5Rect_IT_EERKS3_S5_.exit, label %22

22:                                               ; preds = %14
  %23 = load i32, ptr %9, align 4, !tbaa !22
  %24 = tail call i32 @llvm.smin.i32(i32 %23, i32 %.sroa.0.sroa.0.0.extract.trunc.i)
  %25 = getelementptr inbounds nuw i8, ptr %9, i64 4
  %26 = load i32, ptr %25, align 4, !tbaa !22
  %27 = tail call i32 @llvm.smin.i32(i32 %26, i32 %.sroa.0.sroa.7.0.extract.trunc.i)
  %28 = add nsw i32 %.sroa.9.8.extract.trunc.i, %.sroa.0.sroa.0.0.extract.trunc.i
  %29 = add nsw i32 %23, %16
  %.sroa.speculated30.i.i = tail call i32 @llvm.smax.i32(i32 %28, i32 %29)
  %30 = sub nsw i32 %.sroa.speculated30.i.i, %24
  %.sroa.9.8.insert.ext.i = zext i32 %30 to i64
  %31 = add nsw i32 %.sroa.9.12.extract.trunc.i, %.sroa.0.sroa.7.0.extract.trunc.i
  %32 = add nsw i32 %26, %19
  %.sroa.speculated.i.i = tail call i32 @llvm.smax.i32(i32 %31, i32 %32)
  %33 = sub nsw i32 %.sroa.speculated.i.i, %27
  %.sroa.9.12.insert.ext.i = zext i32 %33 to i64
  %.sroa.9.12.insert.shift.i = shl nuw i64 %.sroa.9.12.insert.ext.i, 32
  %.sroa.9.12.insert.insert.i = or disjoint i64 %.sroa.9.12.insert.shift.i, %.sroa.9.8.insert.ext.i
  br label %_ZN2cvorIiEENS_5Rect_IT_EERKS3_S5_.exit

_ZN2cvorIiEENS_5Rect_IT_EERKS3_S5_.exit:          ; preds = %13, %14, %22
  %.sroa.0.sroa.7.0.i = phi i32 [ %.sroa.0.sroa.7.0.extract.trunc10.i, %13 ], [ %.sroa.0.sroa.7.0.extract.trunc.i, %14 ], [ %27, %22 ]
  %.sroa.0.sroa.0.0.i = phi i32 [ %.sroa.0.sroa.0.0.extract.trunc8.i, %13 ], [ %.sroa.0.sroa.0.0.extract.trunc.i, %14 ], [ %24, %22 ]
  %.sroa.9.0.i = phi i64 [ %.sroa.9.0.copyload6.i, %13 ], [ %.sroa.9.0.copyload.i, %14 ], [ %.sroa.9.12.insert.insert.i, %22 ]
  %.sroa.0.sroa.7.0.insert.ext.i = zext i32 %.sroa.0.sroa.7.0.i to i64
  %.sroa.0.sroa.7.0.insert.shift.i = shl nuw i64 %.sroa.0.sroa.7.0.insert.ext.i, 32
  %.sroa.0.sroa.0.0.insert.ext.i = zext i32 %.sroa.0.sroa.0.0.i to i64
  %.sroa.0.sroa.0.0.insert.insert.i = or disjoint i64 %.sroa.0.sroa.7.0.insert.shift.i, %.sroa.0.sroa.0.0.insert.ext.i
  store i64 %.sroa.0.sroa.0.0.insert.insert.i, ptr %7, align 4
  store i64 %.sroa.9.0.i, ptr %.sroa.9.0..sroa_idx.i, align 4
  %34 = load ptr, ptr %4, align 8, !tbaa !199
  %35 = getelementptr inbounds nuw %"class.cv::Rect_", ptr %34, i64 %5
  %36 = getelementptr inbounds nuw %"class.cv::Rect_", ptr %34, i64 %8
  tail call void @llvm.memcpy.p0.p0.i64(ptr noundef nonnull align 4 dereferenceable(16) %36, ptr noundef nonnull align 4 dereferenceable(16) %35, i64 16, i1 false), !tbaa.struct !203
  ret void
}